; Function Attrs: mustprogress uwtable
define hidden void @_ZN2cv5gimpl17GThreadedExecutor6Output6verifyEv(ptr noundef nonnull readonly align 8 captures(none) dereferenceable(104) %0) local_unnamed_addr #3 align 2 personality ptr @__gxx_personality_v0 {
  %2 = alloca %"class.std::__exception_ptr::exception_ptr", align 8
  %3 = getelementptr inbounds nuw i8, ptr %0, i64 96
  %4 = load ptr, ptr %3, align 8, !tbaa !95
  %.not = icmp eq ptr %4, null
  br i1 %.not, label %10, label %_ZNSt15__exception_ptr13exception_ptrC2ERKS0_.exit

_ZNSt15__exception_ptr13exception_ptrC2ERKS0_.exit: ; preds = %1
  store ptr %4, ptr %2, align 8, !tbaa !95
  call void @_ZNSt15__exception_ptr13exception_ptr9_M_addrefEv(ptr noundef nonnull align 8 dereferenceable(8) %2) #26
  invoke void @_ZSt17rethrow_exceptionNSt15__exception_ptr13exception_ptrE(ptr noundef nonnull %2) #27
          to label %5 unwind label %6

5:                                                ; preds = %_ZNSt15__exception_ptr13exception_ptrC2ERKS0_.exit
  unreachable

6:                                                ; preds = %_ZNSt15__exception_ptr13exception_ptrC2ERKS0_.exit
  %7 = landingpad { ptr, i32 }
          cleanup
  %8 = load ptr, ptr %2, align 8, !tbaa !95
  %.not.i2 = icmp eq ptr %8, null
  br i1 %.not.i2, label %_ZNSt15__exception_ptr13exception_ptrD2Ev.exit, label %9

9:                                                ; preds = %6
  call void @_ZNSt15__exception_ptr13exception_ptr10_M_releaseEv(ptr noundef nonnull align 8 dereferenceable(8) %2) #26
  br label %_ZNSt15__exception_ptr13exception_ptrD2Ev.exit

_ZNSt15__exception_ptr13exception_ptrD2Ev.exit:   ; preds = %6, %9
  resume { ptr, i32 } %7

10:                                               ; preds = %1
  ret void
}